target datalayout = "e-m:e-p270:32:32-p271:32:32-p272:64:64-i64:64-i128:128-f80:128-n8:16:32:64-S128"
target triple = "x86_64-pc-linux-gnu"

%"struct.boost::urls::url_base::op_t" = type { ptr, ptr, ptr, ptr }
%"class.boost::urls::url_base" = type { ptr, %"class.boost::urls::url_view_base", ptr, i64 }
%"class.boost::urls::url_view_base" = type { [8 x i8], %"struct.boost::urls::detail::url_impl", ptr }
%"struct.boost::urls::detail::url_impl" = type <{ ptr, [8 x i64], [7 x i64], i64, i64, [16 x i8], i16, [2 x i8], i32, i16, i8, [5 x i8] }>

@_ZN5boost4urls8url_base4op_tD1Ev = unnamed_addr alias void (ptr), ptr @_ZN5boost4urls8url_base4op_tD2Ev
@_ZN5boost4urls8url_base4op_tC1ERS1_PNS_4core17basic_string_viewIcEES7_ = unnamed_addr alias void (ptr, ptr, ptr, ptr), ptr @_ZN5boost4urls8url_base4op_tC2ERS1_PNS_4core17basic_string_viewIcEES7_

; Function Attrs: mustprogress nounwind uwtable
define linkonce_odr hidden noundef ptr @_ZNK5boost4urls13url_view_base4dataEv(ptr noundef nonnull align 8 dereferenceable(192) %0) #2 comdat align 2 {
  %2 = alloca ptr, align 8
  store ptr %0, ptr %2, align 8, !tbaa !7
  %3 = load ptr, ptr %2, align 8
  %4 = getelementptr inbounds nuw %"class.boost::urls::url_view_base", ptr %3, i32 0, i32 2
  %5 = load ptr, ptr %4, align 8, !tbaa !33
  %6 = getelementptr inbounds nuw %"struct.boost::urls::detail::url_impl", ptr %5, i32 0, i32 0
  %7 = load ptr, ptr %6, align 8, !tbaa !36
  ret ptr %7
}

; Function Attrs: mustprogress nounwind uwtable
define linkonce_odr hidden void @_ZN5boost4urls8url_base5clearEv(ptr noundef nonnull align 8 dereferenceable(216) %0) #2 comdat align 2 {
  %2 = alloca ptr, align 8
  store ptr %0, ptr %2, align 8, !tbaa !7
  %3 = load ptr, ptr %2, align 8
  %4 = load ptr, ptr %3, align 8, !tbaa !14
  %5 = getelementptr inbounds ptr, ptr %4, i64 2
  %6 = load ptr, ptr %5, align 8
  call void %6(ptr noundef nonnull align 8 dereferenceable(216) %3) #9
  ret void
}

; Function Attrs: mustprogress nounwind uwtable
define linkonce_odr hidden noundef i64 @_ZNK5boost4urls13url_view_base4sizeEv(ptr noundef nonnull align 8 dereferenceable(192) %0) #2 comdat align 2 {
  %2 = alloca ptr, align 8
  store ptr %0, ptr %2, align 8, !tbaa !7
  %3 = load ptr, ptr %2, align 8
  %4 = getelementptr inbounds nuw %"class.boost::urls::url_view_base", ptr %3, i32 0, i32 2
  %5 = load ptr, ptr %4, align 8, !tbaa !33
  %6 = call noundef i64 @_ZNK5boost4urls6detail8url_impl6offsetEi(ptr noundef nonnull align 8 dereferenceable(171) %5, i32 noundef 7) #9
  ret i64 %6
}

; Function Attrs: mustprogress uwtable
define void @_ZN5boost4urls8url_base4copyERKNS0_13url_view_baseE(ptr noundef nonnull align 8 dereferenceable(216) %0, ptr noundef nonnull align 8 dereferenceable(192) %1) #5 align 2 personality ptr @__gxx_personality_v0 {
  %3 = alloca ptr, align 8
  %4 = alloca ptr, align 8
  %5 = alloca %"struct.boost::urls::url_base::op_t", align 8
  %6 = alloca i32, align 4
  %7 = alloca ptr, align 8
  %8 = alloca i32, align 4
  store ptr %0, ptr %3, align 8, !tbaa !7
  store ptr %1, ptr %4, align 8, !tbaa !7
  %9 = load ptr, ptr %3, align 8
  %10 = getelementptr inbounds i8, ptr %9, i64 8
  %11 = load ptr, ptr %4, align 8, !tbaa !7
  %12 = icmp eq ptr %10, %11
  br i1 %12, label %13, label %14

13:                                               ; preds = %2
  br label %52

14:                                               ; preds = %2
  call void @llvm.lifetime.start.p0(i64 32, ptr %5) #9
  call void @_ZN5boost4urls8url_base4op_tC1ERS1_PNS_4core17basic_string_viewIcEES7_(ptr noundef nonnull align 8 dereferenceable(32) %5, ptr noundef nonnull align 8 dereferenceable(216) %9, ptr noundef null, ptr noundef null) #9
  %15 = load ptr, ptr %4, align 8, !tbaa !7
  %16 = call noundef i64 @_ZNK5boost4urls13url_view_base4sizeEv(ptr noundef nonnull align 8 dereferenceable(192) %15) #9
  %17 = icmp eq i64 %16, 0
  br i1 %17, label %18, label %19

18:                                               ; preds = %14
  call void @_ZN5boost4urls8url_base5clearEv(ptr noundef nonnull align 8 dereferenceable(216) %9) #9
  store i32 1, ptr %6, align 4
  br label %50

19:                                               ; preds = %14
  %20 = load ptr, ptr %4, align 8, !tbaa !7
  %21 = call noundef i64 @_ZNK5boost4urls13url_view_base4sizeEv(ptr noundef nonnull align 8 dereferenceable(192) %20) #9
  %22 = load ptr, ptr %9, align 8, !tbaa !14
  %23 = getelementptr inbounds ptr, ptr %22, i64 3
  %24 = load ptr, ptr %23, align 8
  invoke void %24(ptr noundef nonnull align 8 dereferenceable(216) %9, i64 noundef %21, ptr noundef nonnull align 8 dereferenceable(32) %5)
          to label %25 unwind label %53

25:                                               ; preds = %19
  %26 = load ptr, ptr %4, align 8, !tbaa !7
  %27 = getelementptr inbounds nuw %"class.boost::urls::url_view_base", ptr %26, i32 0, i32 2
  %28 = load ptr, ptr %27, align 8, !tbaa !33
  %29 = getelementptr inbounds i8, ptr %9, i64 8
  %30 = getelementptr inbounds nuw %"class.boost::urls::url_view_base", ptr %29, i32 0, i32 1
  call void @llvm.memcpy.p0.p0.i64(ptr align 8 %30, ptr align 8 %28, i64 171, i1 false)
  %31 = getelementptr inbounds nuw %"class.boost::urls::url_base", ptr %9, i32 0, i32 2
  %32 = load ptr, ptr %31, align 8, !tbaa !23
  %33 = getelementptr inbounds i8, ptr %9, i64 8
  %34 = getelementptr inbounds nuw %"class.boost::urls::url_view_base", ptr %33, i32 0, i32 1
  %35 = getelementptr inbounds nuw %"struct.boost::urls::detail::url_impl", ptr %34, i32 0, i32 0
  store ptr %32, ptr %35, align 8, !tbaa !34
  %36 = getelementptr inbounds i8, ptr %9, i64 8
  %37 = getelementptr inbounds nuw %"class.boost::urls::url_view_base", ptr %36, i32 0, i32 1
  %38 = getelementptr inbounds nuw %"struct.boost::urls::detail::url_impl", ptr %37, i32 0, i32 10
  store i8 1, ptr %38, align 2, !tbaa !35
  %39 = getelementptr inbounds nuw %"class.boost::urls::url_base", ptr %9, i32 0, i32 2
  %40 = load ptr, ptr %39, align 8, !tbaa !23
  %41 = load ptr, ptr %4, align 8, !tbaa !7
  %42 = call noundef ptr @_ZNK5boost4urls13url_view_base4dataEv(ptr noundef nonnull align 8 dereferenceable(192) %41) #9
  %43 = load ptr, ptr %4, align 8, !tbaa !7
  %44 = call noundef i64 @_ZNK5boost4urls13url_view_base4sizeEv(ptr noundef nonnull align 8 dereferenceable(192) %43) #9
  call void @llvm.memcpy.p0.p0.i64(ptr align 1 %40, ptr align 1 %42, i64 %44, i1 false)
  %45 = getelementptr inbounds nuw %"class.boost::urls::url_base", ptr %9, i32 0, i32 2
  %46 = load ptr, ptr %45, align 8, !tbaa !23
  %47 = getelementptr inbounds i8, ptr %9, i64 8
  %48 = call noundef i64 @_ZNK5boost4urls13url_view_base4sizeEv(ptr noundef nonnull align 8 dereferenceable(192) %47) #9
  %49 = getelementptr inbounds nuw i8, ptr %46, i64 %48
  store i8 0, ptr %49, align 1, !tbaa !32
  store i32 0, ptr %6, align 4
  br label %50

50:                                               ; preds = %25, %18
  call void @_ZN5boost4urls8url_base4op_tD1Ev(ptr noundef nonnull align 8 dereferenceable(32) %5) #9
  call void @llvm.lifetime.end.p0(i64 32, ptr %5) #9
  %51 = load i32, ptr %6, align 4
  switch i32 %51, label %62 [
    i32 0, label %52
    i32 1, label %52
  ]

52:                                               ; preds = %13, %50, %50
  ret void

53:                                               ; preds = %19
  %54 = landingpad { ptr, i32 }
          cleanup
  %55 = extractvalue { ptr, i32 } %54, 0
  store ptr %55, ptr %7, align 8
  %56 = extractvalue { ptr, i32 } %54, 1
  store i32 %56, ptr %8, align 4
  call void @_ZN5boost4urls8url_base4op_tD1Ev(ptr noundef nonnull align 8 dereferenceable(32) %5) #9
  call void @llvm.lifetime.end.p0(i64 32, ptr %5) #9
  br label %57

57:                                               ; preds = %53
  %58 = load ptr, ptr %7, align 8
  %59 = load i32, ptr %8, align 4
  %60 = insertvalue { ptr, i32 } poison, ptr %58, 0
  %61 = insertvalue { ptr, i32 } %60, i32 %59, 1
  resume { ptr, i32 } %61

62:                                               ; preds = %50
  unreachable
}