; Function Attrs: mustprogress uwtable
define void @_ZN5boost4urls8url_base4copyERKNS0_13url_view_baseE(ptr noundef nonnull align 8 dereferenceable(216) %0, ptr noundef nonnull readonly align 8 dereferenceable(192) %1) local_unnamed_addr #10 align 2 personality ptr @__gxx_personality_v0 {
  %3 = alloca %"struct.boost::urls::url_base::op_t", align 8
  %4 = getelementptr inbounds i8, ptr %0, i64 8
  %5 = icmp eq ptr %4, %1
  br i1 %5, label %36, label %6

6:                                                ; preds = %2
  call void @llvm.lifetime.start.p0(i64 32, ptr nonnull %3) #30
  call void @_ZN5boost4urls8url_base4op_tC1ERS1_PNS_4core17basic_string_viewIcEES7_(ptr noundef nonnull align 8 dereferenceable(32) %3, ptr noundef nonnull align 8 dereferenceable(216) %0, ptr noundef null, ptr noundef null) #30
  %7 = getelementptr inbounds nuw i8, ptr %1, i64 184
  %8 = load ptr, ptr %7, align 8, !tbaa !24
  %9 = call noundef i64 @_ZNK5boost4urls6detail8url_impl6offsetEi(ptr noundef nonnull align 8 dereferenceable(171) %8, i32 noundef 7) #30
  %10 = icmp eq i64 %9, 0
  br i1 %10, label %11, label %15

11:                                               ; preds = %6
  %12 = load ptr, ptr %0, align 8, !tbaa !9
  %13 = getelementptr inbounds i8, ptr %12, i64 16
  %14 = load ptr, ptr %13, align 8
  call void %14(ptr noundef nonnull align 8 dereferenceable(216) %0) #30
  br label %35

15:                                               ; preds = %6
  %16 = load ptr, ptr %7, align 8, !tbaa !24
  %17 = call noundef i64 @_ZNK5boost4urls6detail8url_impl6offsetEi(ptr noundef nonnull align 8 dereferenceable(171) %16, i32 noundef 7) #30
  %18 = load ptr, ptr %0, align 8, !tbaa !9
  %19 = getelementptr inbounds i8, ptr %18, i64 24
  %20 = load ptr, ptr %19, align 8
  invoke void %20(ptr noundef nonnull align 8 dereferenceable(216) %0, i64 noundef %17, ptr noundef nonnull align 8 dereferenceable(32) %3)
          to label %21 unwind label %37

21:                                               ; preds = %15
  %22 = load ptr, ptr %7, align 8, !tbaa !24
  %23 = getelementptr inbounds i8, ptr %0, i64 16
  call void @llvm.memcpy.p0.p0.i64(ptr noundef nonnull align 8 dereferenceable(171) %23, ptr noundef nonnull align 8 dereferenceable(171) %22, i64 171, i1 false)
  %24 = getelementptr inbounds nuw i8, ptr %0, i64 200
  %25 = load ptr, ptr %24, align 8, !tbaa !16
  store ptr %25, ptr %23, align 8, !tbaa !26
  %26 = getelementptr inbounds i8, ptr %0, i64 186
  store i8 1, ptr %26, align 2, !tbaa !27
  %27 = load ptr, ptr %7, align 8, !tbaa !24
  %28 = load ptr, ptr %27, align 8, !tbaa !28
  %29 = call noundef i64 @_ZNK5boost4urls6detail8url_impl6offsetEi(ptr noundef nonnull align 8 dereferenceable(171) %27, i32 noundef 7) #30
  call void @llvm.memcpy.p0.p0.i64(ptr align 1 %25, ptr align 1 %28, i64 %29, i1 false)
  %30 = load ptr, ptr %24, align 8, !tbaa !16
  %31 = getelementptr inbounds i8, ptr %0, i64 192
  %32 = load ptr, ptr %31, align 8, !tbaa !24
  %33 = call noundef i64 @_ZNK5boost4urls6detail8url_impl6offsetEi(ptr noundef nonnull align 8 dereferenceable(171) %32, i32 noundef 7) #30
  %34 = getelementptr inbounds nuw i8, ptr %30, i64 %33
  store i8 0, ptr %34, align 1, !tbaa !25
  br label %35

35:                                               ; preds = %21, %11
  call void @_ZN5boost4urls8url_base4op_tD1Ev(ptr noundef nonnull align 8 dereferenceable(32) %3) #30
  call void @llvm.lifetime.end.p0(i64 32, ptr nonnull %3) #30
  br label %36

36:                                               ; preds = %2, %35
  ret void

37:                                               ; preds = %15
  %38 = landingpad { ptr, i32 }
          cleanup
  call void @_ZN5boost4urls8url_base4op_tD1Ev(ptr noundef nonnull align 8 dereferenceable(32) %3) #30
  call void @llvm.lifetime.end.p0(i64 32, ptr nonnull %3) #30
  resume { ptr, i32 } %38
}